target datalayout = "e-m:e-p270:32:32-p271:32:32-p272:64:64-i64:64-i128:128-f80:128-n8:16:32:64-S128"
target triple = "x86_64-pc-linux-gnu"

%struct.SDL_BlitInfo = type { ptr, ptr, i32, i32, i32, i32, ptr, ptr, i32, i32, i32, i32, ptr, ptr, ptr, ptr, ptr, ptr, i32, i32, i8, i8, i8, i8 }

; Function Attrs: nounwind uwtable
define internal void @Blit_RGB565_32(ptr noundef %0, ptr noundef %1) #0 {
  %3 = alloca ptr, align 8
  %4 = alloca ptr, align 8
  %5 = alloca i32, align 4
  %6 = alloca i32, align 4
  %7 = alloca ptr, align 8
  %8 = alloca ptr, align 8
  %9 = alloca i32, align 4
  %10 = alloca i32, align 4
  %11 = alloca i32, align 4
  store ptr %0, ptr %3, align 8
  store ptr %1, ptr %4, align 8
  call void @llvm.lifetime.start.p0(i64 4, ptr %5) #3
  call void @llvm.lifetime.start.p0(i64 4, ptr %6) #3
  call void @llvm.lifetime.start.p0(i64 8, ptr %7) #3
  call void @llvm.lifetime.start.p0(i64 8, ptr %8) #3
  call void @llvm.lifetime.start.p0(i64 4, ptr %9) #3
  call void @llvm.lifetime.start.p0(i64 4, ptr %10) #3
  %12 = load ptr, ptr %3, align 8
  %13 = getelementptr inbounds nuw %struct.SDL_BlitInfo, ptr %12, i32 0, i32 8
  %14 = load i32, ptr %13, align 8
  store i32 %14, ptr %5, align 4
  %15 = load ptr, ptr %3, align 8
  %16 = getelementptr inbounds nuw %struct.SDL_BlitInfo, ptr %15, i32 0, i32 9
  %17 = load i32, ptr %16, align 4
  store i32 %17, ptr %6, align 4
  %18 = load ptr, ptr %3, align 8
  %19 = getelementptr inbounds nuw %struct.SDL_BlitInfo, ptr %18, i32 0, i32 1
  %20 = load ptr, ptr %19, align 8
  store ptr %20, ptr %7, align 8
  %21 = load ptr, ptr %3, align 8
  %22 = getelementptr inbounds nuw %struct.SDL_BlitInfo, ptr %21, i32 0, i32 5
  %23 = load i32, ptr %22, align 4
  store i32 %23, ptr %9, align 4
  %24 = load ptr, ptr %3, align 8
  %25 = getelementptr inbounds nuw %struct.SDL_BlitInfo, ptr %24, i32 0, i32 7
  %26 = load ptr, ptr %25, align 8
  store ptr %26, ptr %8, align 8
  %27 = load ptr, ptr %3, align 8
  %28 = getelementptr inbounds nuw %struct.SDL_BlitInfo, ptr %27, i32 0, i32 11
  %29 = load i32, ptr %28, align 4
  %30 = sdiv i32 %29, 4
  store i32 %30, ptr %10, align 4
  br label %31

31:                                               ; preds = %147, %2
  %32 = load i32, ptr %6, align 4
  %33 = add nsw i32 %32, -1
  store i32 %33, ptr %6, align 4
  %34 = icmp ne i32 %32, 0
  br i1 %34, label %35, label %156

35:                                               ; preds = %31
  call void @llvm.lifetime.start.p0(i64 4, ptr %11) #3
  %36 = load i32, ptr %5, align 4
  %37 = add nsw i32 %36, 3
  %38 = sdiv i32 %37, 4
  store i32 %38, ptr %11, align 4
  %39 = load i32, ptr %5, align 4
  %40 = and i32 %39, 3
  switch i32 %40, label %147 [
    i32 0, label %41
    i32 3, label %67
    i32 2, label %92
    i32 1, label %117
  ]

41:                                               ; preds = %35
  br label %42

42:                                               ; preds = %142, %41
  %43 = load ptr, ptr %4, align 8
  %44 = load ptr, ptr %7, align 8
  %45 = getelementptr inbounds i8, ptr %44, i64 0
  %46 = load i8, ptr %45, align 1
  %47 = zext i8 %46 to i32
  %48 = mul nsw i32 %47, 2
  %49 = sext i32 %48 to i64
  %50 = getelementptr inbounds i32, ptr %43, i64 %49
  %51 = load i32, ptr %50, align 4
  %52 = load ptr, ptr %4, align 8
  %53 = load ptr, ptr %7, align 8
  %54 = getelementptr inbounds i8, ptr %53, i64 1
  %55 = load i8, ptr %54, align 1
  %56 = zext i8 %55 to i32
  %57 = mul nsw i32 %56, 2
  %58 = add nsw i32 %57, 1
  %59 = sext i32 %58 to i64
  %60 = getelementptr inbounds i32, ptr %52, i64 %59
  %61 = load i32, ptr %60, align 4
  %62 = add i32 %51, %61
  %63 = load ptr, ptr %8, align 8
  %64 = getelementptr inbounds nuw i32, ptr %63, i32 1
  store ptr %64, ptr %8, align 8
  store i32 %62, ptr %63, align 4
  %65 = load ptr, ptr %7, align 8
  %66 = getelementptr inbounds i8, ptr %65, i64 2
  store ptr %66, ptr %7, align 8
  br label %67

67:                                               ; preds = %35, %42
  %68 = load ptr, ptr %4, align 8
  %69 = load ptr, ptr %7, align 8
  %70 = getelementptr inbounds i8, ptr %69, i64 0
  %71 = load i8, ptr %70, align 1
  %72 = zext i8 %71 to i32
  %73 = mul nsw i32 %72, 2
  %74 = sext i32 %73 to i64
  %75 = getelementptr inbounds i32, ptr %68, i64 %74
  %76 = load i32, ptr %75, align 4
  %77 = load ptr, ptr %4, align 8
  %78 = load ptr, ptr %7, align 8
  %79 = getelementptr inbounds i8, ptr %78, i64 1
  %80 = load i8, ptr %79, align 1
  %81 = zext i8 %80 to i32
  %82 = mul nsw i32 %81, 2
  %83 = add nsw i32 %82, 1
  %84 = sext i32 %83 to i64
  %85 = getelementptr inbounds i32, ptr %77, i64 %84
  %86 = load i32, ptr %85, align 4
  %87 = add i32 %76, %86
  %88 = load ptr, ptr %8, align 8
  %89 = getelementptr inbounds nuw i32, ptr %88, i32 1
  store ptr %89, ptr %8, align 8
  store i32 %87, ptr %88, align 4
  %90 = load ptr, ptr %7, align 8
  %91 = getelementptr inbounds i8, ptr %90, i64 2
  store ptr %91, ptr %7, align 8
  br label %92

92:                                               ; preds = %35, %67
  %93 = load ptr, ptr %4, align 8
  %94 = load ptr, ptr %7, align 8
  %95 = getelementptr inbounds i8, ptr %94, i64 0
  %96 = load i8, ptr %95, align 1
  %97 = zext i8 %96 to i32
  %98 = mul nsw i32 %97, 2
  %99 = sext i32 %98 to i64
  %100 = getelementptr inbounds i32, ptr %93, i64 %99
  %101 = load i32, ptr %100, align 4
  %102 = load ptr, ptr %4, align 8
  %103 = load ptr, ptr %7, align 8
  %104 = getelementptr inbounds i8, ptr %103, i64 1
  %105 = load i8, ptr %104, align 1
  %106 = zext i8 %105 to i32
  %107 = mul nsw i32 %106, 2
  %108 = add nsw i32 %107, 1
  %109 = sext i32 %108 to i64
  %110 = getelementptr inbounds i32, ptr %102, i64 %109
  %111 = load i32, ptr %110, align 4
  %112 = add i32 %101, %111
  %113 = load ptr, ptr %8, align 8
  %114 = getelementptr inbounds nuw i32, ptr %113, i32 1
  store ptr %114, ptr %8, align 8
  store i32 %112, ptr %113, align 4
  %115 = load ptr, ptr %7, align 8
  %116 = getelementptr inbounds i8, ptr %115, i64 2
  store ptr %116, ptr %7, align 8
  br label %117

117:                                              ; preds = %35, %92
  %118 = load ptr, ptr %4, align 8
  %119 = load ptr, ptr %7, align 8
  %120 = getelementptr inbounds i8, ptr %119, i64 0
  %121 = load i8, ptr %120, align 1
  %122 = zext i8 %121 to i32
  %123 = mul nsw i32 %122, 2
  %124 = sext i32 %123 to i64
  %125 = getelementptr inbounds i32, ptr %118, i64 %124
  %126 = load i32, ptr %125, align 4
  %127 = load ptr, ptr %4, align 8
  %128 = load ptr, ptr %7, align 8
  %129 = getelementptr inbounds i8, ptr %128, i64 1
  %130 = load i8, ptr %129, align 1
  %131 = zext i8 %130 to i32
  %132 = mul nsw i32 %131, 2
  %133 = add nsw i32 %132, 1
  %134 = sext i32 %133 to i64
  %135 = getelementptr inbounds i32, ptr %127, i64 %134
  %136 = load i32, ptr %135, align 4
  %137 = add i32 %126, %136
  %138 = load ptr, ptr %8, align 8
  %139 = getelementptr inbounds nuw i32, ptr %138, i32 1
  store ptr %139, ptr %8, align 8
  store i32 %137, ptr %138, align 4
  %140 = load ptr, ptr %7, align 8
  %141 = getelementptr inbounds i8, ptr %140, i64 2
  store ptr %141, ptr %7, align 8
  br label %142

142:                                              ; preds = %117
  %143 = load i32, ptr %11, align 4
  %144 = add nsw i32 %143, -1
  store i32 %144, ptr %11, align 4
  %145 = icmp sgt i32 %144, 0
  br i1 %145, label %42, label %146, !llvm.loop !49

146:                                              ; preds = %142
  br label %147

147:                                              ; preds = %146, %35
  call void @llvm.lifetime.end.p0(i64 4, ptr %11) #3
  %148 = load i32, ptr %9, align 4
  %149 = load ptr, ptr %7, align 8
  %150 = sext i32 %148 to i64
  %151 = getelementptr inbounds i8, ptr %149, i64 %150
  store ptr %151, ptr %7, align 8
  %152 = load i32, ptr %10, align 4
  %153 = load ptr, ptr %8, align 8
  %154 = sext i32 %152 to i64
  %155 = getelementptr inbounds i32, ptr %153, i64 %154
  store ptr %155, ptr %8, align 8
  br label %31, !llvm.loop !50

156:                                              ; preds = %31
  call void @llvm.lifetime.end.p0(i64 4, ptr %10) #3
  call void @llvm.lifetime.end.p0(i64 4, ptr %9) #3
  call void @llvm.lifetime.end.p0(i64 8, ptr %8) #3
  call void @llvm.lifetime.end.p0(i64 8, ptr %7) #3
  call void @llvm.lifetime.end.p0(i64 4, ptr %6) #3
  call void @llvm.lifetime.end.p0(i64 4, ptr %5) #3
  ret void
}