; Function Attrs: nofree norecurse nosync nounwind memory(readwrite, inaccessiblemem: none) uwtable
define internal fastcc void @Blit_RGB565_32(ptr noundef readonly captures(none) %0, ptr noundef readonly captures(none) %1) unnamed_addr #3 {
  %3 = getelementptr inbounds nuw i8, ptr %0, i64 52
  %4 = load i32, ptr %3, align 4
  %invariant.gep = getelementptr inbounds nuw i8, ptr %1, i64 4
  %.not61 = icmp eq i32 %4, 0
  br i1 %.not61, label %._crit_edge, label %.lr.ph

.lr.ph:                                           ; preds = %2
  %5 = getelementptr inbounds nuw i8, ptr %0, i64 60
  %6 = load i32, ptr %5, align 4
  %7 = sdiv i32 %6, 4
  %8 = getelementptr inbounds nuw i8, ptr %0, i64 40
  %9 = load ptr, ptr %8, align 8
  %10 = getelementptr inbounds nuw i8, ptr %0, i64 28
  %11 = load i32, ptr %10, align 4
  %12 = getelementptr inbounds nuw i8, ptr %0, i64 8
  %13 = load ptr, ptr %12, align 8
  %14 = getelementptr inbounds nuw i8, ptr %0, i64 48
  %15 = load i32, ptr %14, align 8
  %16 = add nsw i32 %15, 3
  %17 = sdiv i32 %16, 4
  %18 = and i32 %15, 3
  %19 = sext i32 %11 to i64
  %20 = sext i32 %7 to i64
  br label %21

21:                                               ; preds = %.lr.ph, %73
  %.in = phi i32 [ %4, %.lr.ph ], [ %22, %73 ]
  %.03863 = phi ptr [ %13, %.lr.ph ], [ %74, %73 ]
  %.04262 = phi ptr [ %9, %.lr.ph ], [ %75, %73 ]
  %22 = add nsw i32 %.in, -1
  switch i32 %18, label %default.unreachable64 [
    i32 0, label %23
    i32 3, label %35
    i32 2, label %47
    i32 1, label %59
  ]

23:                                               ; preds = %21, %59
  %.446 = phi ptr [ %69, %59 ], [ %.04262, %21 ]
  %.4 = phi ptr [ %70, %59 ], [ %.03863, %21 ]
  %.3 = phi i32 [ %71, %59 ], [ %17, %21 ]
  %24 = load i8, ptr %.4, align 1
  %25 = zext i8 %24 to i64
  %.idx = shl nuw nsw i64 %25, 3
  %26 = getelementptr inbounds nuw i8, ptr %1, i64 %.idx
  %27 = load i32, ptr %26, align 4
  %28 = getelementptr inbounds nuw i8, ptr %.4, i64 1
  %29 = load i8, ptr %28, align 1
  %30 = zext i8 %29 to i64
  %.idx48 = shl nuw nsw i64 %30, 3
  %gep = getelementptr inbounds nuw i8, ptr %invariant.gep, i64 %.idx48
  %31 = load i32, ptr %gep, align 4
  %32 = add i32 %31, %27
  %33 = getelementptr inbounds nuw i8, ptr %.446, i64 4
  store i32 %32, ptr %.446, align 4
  %34 = getelementptr inbounds nuw i8, ptr %.4, i64 2
  br label %35

35:                                               ; preds = %23, %21
  %.143 = phi ptr [ %33, %23 ], [ %.04262, %21 ]
  %.139 = phi ptr [ %34, %23 ], [ %.03863, %21 ]
  %.0 = phi i32 [ %.3, %23 ], [ %17, %21 ]
  %36 = load i8, ptr %.139, align 1
  %37 = zext i8 %36 to i64
  %.idx49 = shl nuw nsw i64 %37, 3
  %38 = getelementptr inbounds nuw i8, ptr %1, i64 %.idx49
  %39 = load i32, ptr %38, align 4
  %40 = getelementptr inbounds nuw i8, ptr %.139, i64 1
  %41 = load i8, ptr %40, align 1
  %42 = zext i8 %41 to i64
  %.idx50 = shl nuw nsw i64 %42, 3
  %gep56 = getelementptr inbounds nuw i8, ptr %invariant.gep, i64 %.idx50
  %43 = load i32, ptr %gep56, align 4
  %44 = add i32 %43, %39
  %45 = getelementptr inbounds nuw i8, ptr %.143, i64 4
  store i32 %44, ptr %.143, align 4
  %46 = getelementptr inbounds nuw i8, ptr %.139, i64 2
  br label %47

47:                                               ; preds = %35, %21
  %.244 = phi ptr [ %45, %35 ], [ %.04262, %21 ]
  %.240 = phi ptr [ %46, %35 ], [ %.03863, %21 ]
  %.1 = phi i32 [ %.0, %35 ], [ %17, %21 ]
  %48 = load i8, ptr %.240, align 1
  %49 = zext i8 %48 to i64
  %.idx51 = shl nuw nsw i64 %49, 3
  %50 = getelementptr inbounds nuw i8, ptr %1, i64 %.idx51
  %51 = load i32, ptr %50, align 4
  %52 = getelementptr inbounds nuw i8, ptr %.240, i64 1
  %53 = load i8, ptr %52, align 1
  %54 = zext i8 %53 to i64
  %.idx52 = shl nuw nsw i64 %54, 3
  %gep58 = getelementptr inbounds nuw i8, ptr %invariant.gep, i64 %.idx52
  %55 = load i32, ptr %gep58, align 4
  %56 = add i32 %55, %51
  %57 = getelementptr inbounds nuw i8, ptr %.244, i64 4
  store i32 %56, ptr %.244, align 4
  %58 = getelementptr inbounds nuw i8, ptr %.240, i64 2
  br label %59

59:                                               ; preds = %47, %21
  %.345 = phi ptr [ %.04262, %21 ], [ %57, %47 ]
  %.341 = phi ptr [ %.03863, %21 ], [ %58, %47 ]
  %.2 = phi i32 [ %17, %21 ], [ %.1, %47 ]
  %60 = load i8, ptr %.341, align 1
  %61 = zext i8 %60 to i64
  %.idx53 = shl nuw nsw i64 %61, 3
  %62 = getelementptr inbounds nuw i8, ptr %1, i64 %.idx53
  %63 = load i32, ptr %62, align 4
  %64 = getelementptr inbounds nuw i8, ptr %.341, i64 1
  %65 = load i8, ptr %64, align 1
  %66 = zext i8 %65 to i64
  %.idx54 = shl nuw nsw i64 %66, 3
  %gep60 = getelementptr inbounds nuw i8, ptr %invariant.gep, i64 %.idx54
  %67 = load i32, ptr %gep60, align 4
  %68 = add i32 %67, %63
  %69 = getelementptr inbounds nuw i8, ptr %.345, i64 4
  store i32 %68, ptr %.345, align 4
  %70 = getelementptr inbounds nuw i8, ptr %.341, i64 2
  %71 = add nsw i32 %.2, -1
  %72 = icmp sgt i32 %.2, 1
  br i1 %72, label %23, label %73, !llvm.loop !49

default.unreachable64:                            ; preds = %21
  unreachable

73:                                               ; preds = %59
  %74 = getelementptr inbounds i8, ptr %70, i64 %19
  %75 = getelementptr inbounds i32, ptr %69, i64 %20
  %.not = icmp eq i32 %22, 0
  br i1 %.not, label %._crit_edge, label %21, !llvm.loop !50

._crit_edge:                                      ; preds = %73, %2
  ret void
}